target datalayout = "e-m:e-p270:32:32-p271:32:32-p272:64:64-i64:64-i128:128-f80:128-n8:16:32:64-S128"
target triple = "x86_64-pc-linux-gnu"

%struct.TSQueryParserStateData = type { ptr, ptr, ptr, i32, i32, ptr, ptr, ptr, i32, i32, ptr, ptr }
%struct.QueryOperand = type { i8, i8, i8, i32, i32 }

@.str = private unnamed_addr constant [34 x i8] c"word is too long in tsquery: \22%s\22\00", align 1
@.str.1 = private unnamed_addr constant [10 x i8] c"tsquery.c\00", align 1
@__func__.pushValue = private unnamed_addr constant [10 x i8] c"pushValue\00", align 1
@pg_crc32_table = external constant [256 x i32], align 16
@.str.13 = private unnamed_addr constant [34 x i8] c"value is too big in tsquery: \22%s\22\00", align 1
@__func__.pushValue_internal = private unnamed_addr constant [19 x i8] c"pushValue_internal\00", align 1
@.str.14 = private unnamed_addr constant [37 x i8] c"operand is too long in tsquery: \22%s\22\00", align 1

; Function Attrs: nounwind uwtable
define internal void @pushValue_internal(ptr noundef %0, i32 noundef %1, i32 noundef %2, i32 noundef %3, i32 noundef %4, i1 noundef zeroext %5) #0 {
  %7 = alloca ptr, align 8
  %8 = alloca i32, align 4
  %9 = alloca i32, align 4
  %10 = alloca i32, align 4
  %11 = alloca i32, align 4
  %12 = alloca i8, align 1
  %13 = alloca ptr, align 8
  %14 = alloca ptr, align 8
  %15 = alloca i32, align 4
  %16 = alloca ptr, align 8
  store ptr %0, ptr %7, align 8
  store i32 %1, ptr %8, align 4
  store i32 %2, ptr %9, align 4
  store i32 %3, ptr %10, align 4
  store i32 %4, ptr %11, align 4
  %17 = zext i1 %5 to i8
  store i8 %17, ptr %12, align 1
  call void @llvm.lifetime.start.p0(i64 8, ptr %13) #11
  %18 = load i32, ptr %9, align 4
  %19 = icmp sge i32 %18, 1048575
  br i1 %19, label %20, label %40

20:                                               ; preds = %6
  br label %21

21:                                               ; preds = %20
  br label %22

22:                                               ; preds = %21
  call void @llvm.lifetime.start.p0(i64 8, ptr %14) #11
  %23 = load ptr, ptr %7, align 8
  %24 = getelementptr inbounds nuw %struct.TSQueryParserStateData, ptr %23, i32 0, i32 11
  %25 = load ptr, ptr %24, align 8
  store ptr %25, ptr %14, align 8
  %26 = load ptr, ptr %14, align 8
  %27 = call zeroext i1 @errsave_start(ptr noundef %26, ptr noundef null)
  br i1 %27, label %28, label %35

28:                                               ; preds = %22
  %29 = call i32 @errcode(i32 noundef 261)
  %30 = load ptr, ptr %7, align 8
  %31 = getelementptr inbounds nuw %struct.TSQueryParserStateData, ptr %30, i32 0, i32 1
  %32 = load ptr, ptr %31, align 8
  %33 = call i32 (ptr, ...) @errmsg(ptr noundef @.str.13, ptr noundef %32)
  %34 = load ptr, ptr %14, align 8
  call void @errsave_finish(ptr noundef %34, ptr noundef @.str.1, i32 noundef 555, ptr noundef @__func__.pushValue_internal)
  br label %35

35:                                               ; preds = %28, %22
  call void @llvm.lifetime.end.p0(i64 8, ptr %14) #11
  br label %36

36:                                               ; preds = %35
  br label %37

37:                                               ; preds = %36
  store i32 1, ptr %15, align 4
  br label %101

38:                                               ; No predecessors!
  br label %39

39:                                               ; preds = %38
  br label %40

40:                                               ; preds = %39, %6
  %41 = load i32, ptr %10, align 4
  %42 = icmp sge i32 %41, 2047
  br i1 %42, label %43, label %63

43:                                               ; preds = %40
  br label %44

44:                                               ; preds = %43
  br label %45

45:                                               ; preds = %44
  call void @llvm.lifetime.start.p0(i64 8, ptr %16) #11
  %46 = load ptr, ptr %7, align 8
  %47 = getelementptr inbounds nuw %struct.TSQueryParserStateData, ptr %46, i32 0, i32 11
  %48 = load ptr, ptr %47, align 8
  store ptr %48, ptr %16, align 8
  %49 = load ptr, ptr %16, align 8
  %50 = call zeroext i1 @errsave_start(ptr noundef %49, ptr noundef null)
  br i1 %50, label %51, label %58

51:                                               ; preds = %45
  %52 = call i32 @errcode(i32 noundef 261)
  %53 = load ptr, ptr %7, align 8
  %54 = getelementptr inbounds nuw %struct.TSQueryParserStateData, ptr %53, i32 0, i32 1
  %55 = load ptr, ptr %54, align 8
  %56 = call i32 (ptr, ...) @errmsg(ptr noundef @.str.14, ptr noundef %55)
  %57 = load ptr, ptr %16, align 8
  call void @errsave_finish(ptr noundef %57, ptr noundef @.str.1, i32 noundef 560, ptr noundef @__func__.pushValue_internal)
  br label %58

58:                                               ; preds = %51, %45
  call void @llvm.lifetime.end.p0(i64 8, ptr %16) #11
  br label %59

59:                                               ; preds = %58
  br label %60

60:                                               ; preds = %59
  store i32 1, ptr %15, align 4
  br label %101

61:                                               ; No predecessors!
  br label %62

62:                                               ; preds = %61
  br label %63

63:                                               ; preds = %62, %40
  %64 = call ptr @palloc0(i64 noundef 12)
  store ptr %64, ptr %13, align 8
  %65 = load ptr, ptr %13, align 8
  %66 = getelementptr inbounds nuw %struct.QueryOperand, ptr %65, i32 0, i32 0
  store i8 1, ptr %66, align 4
  %67 = load i32, ptr %11, align 4
  %68 = trunc i32 %67 to i8
  %69 = load ptr, ptr %13, align 8
  %70 = getelementptr inbounds nuw %struct.QueryOperand, ptr %69, i32 0, i32 1
  store i8 %68, ptr %70, align 1
  %71 = load i8, ptr %12, align 1, !range !6, !noundef !7
  %72 = trunc i8 %71 to i1
  %73 = load ptr, ptr %13, align 8
  %74 = getelementptr inbounds nuw %struct.QueryOperand, ptr %73, i32 0, i32 2
  %75 = zext i1 %72 to i8
  store i8 %75, ptr %74, align 2
  %76 = load i32, ptr %8, align 4
  %77 = load ptr, ptr %13, align 8
  %78 = getelementptr inbounds nuw %struct.QueryOperand, ptr %77, i32 0, i32 3
  store i32 %76, ptr %78, align 4
  %79 = load i32, ptr %10, align 4
  %80 = load ptr, ptr %13, align 8
  %81 = getelementptr inbounds nuw %struct.QueryOperand, ptr %80, i32 0, i32 4
  %82 = load i32, ptr %81, align 4
  %83 = and i32 %79, 4095
  %84 = and i32 %82, -4096
  %85 = or i32 %84, %83
  store i32 %85, ptr %81, align 4
  %86 = load i32, ptr %9, align 4
  %87 = load ptr, ptr %13, align 8
  %88 = getelementptr inbounds nuw %struct.QueryOperand, ptr %87, i32 0, i32 4
  %89 = load i32, ptr %88, align 4
  %90 = and i32 %86, 1048575
  %91 = shl i32 %90, 12
  %92 = and i32 %89, 4095
  %93 = or i32 %92, %91
  store i32 %93, ptr %88, align 4
  %94 = load ptr, ptr %13, align 8
  %95 = load ptr, ptr %7, align 8
  %96 = getelementptr inbounds nuw %struct.TSQueryParserStateData, ptr %95, i32 0, i32 5
  %97 = load ptr, ptr %96, align 8
  %98 = call ptr @lcons(ptr noundef %94, ptr noundef %97)
  %99 = load ptr, ptr %7, align 8
  %100 = getelementptr inbounds nuw %struct.TSQueryParserStateData, ptr %99, i32 0, i32 5
  store ptr %98, ptr %100, align 8
  store i32 0, ptr %15, align 4
  br label %101

101:                                              ; preds = %63, %60, %37
  call void @llvm.lifetime.end.p0(i64 8, ptr %13) #11
  %102 = load i32, ptr %15, align 4
  switch i32 %102, label %104 [
    i32 0, label %103
    i32 1, label %103
  ]

103:                                              ; preds = %101, %101
  ret void

104:                                              ; preds = %101
  unreachable
}

; Function Attrs: nounwind uwtable
define dso_local void @pushValue(ptr noundef %0, ptr noundef %1, i32 noundef %2, i16 noundef signext %3, i1 noundef zeroext %4) #0 {
  %6 = alloca ptr, align 8
  %7 = alloca ptr, align 8
  %8 = alloca i32, align 4
  %9 = alloca i16, align 2
  %10 = alloca i8, align 1
  %11 = alloca i32, align 4
  %12 = alloca ptr, align 8
  %13 = alloca i32, align 4
  %14 = alloca ptr, align 8
  %15 = alloca i32, align 4
  %16 = alloca i32, align 4
  %17 = alloca i32, align 4
  store ptr %0, ptr %6, align 8
  store ptr %1, ptr %7, align 8
  store i32 %2, ptr %8, align 4
  store i16 %3, ptr %9, align 2
  %18 = zext i1 %4 to i8
  store i8 %18, ptr %10, align 1
  call void @llvm.lifetime.start.p0(i64 4, ptr %11) #11
  %19 = load i32, ptr %8, align 4
  %20 = icmp sge i32 %19, 2047
  br i1 %20, label %21, label %41

21:                                               ; preds = %5
  br label %22

22:                                               ; preds = %21
  br label %23

23:                                               ; preds = %22
  call void @llvm.lifetime.start.p0(i64 8, ptr %12) #11
  %24 = load ptr, ptr %6, align 8
  %25 = getelementptr inbounds nuw %struct.TSQueryParserStateData, ptr %24, i32 0, i32 11
  %26 = load ptr, ptr %25, align 8
  store ptr %26, ptr %12, align 8
  %27 = load ptr, ptr %12, align 8
  %28 = call zeroext i1 @errsave_start(ptr noundef %27, ptr noundef null)
  br i1 %28, label %29, label %36

29:                                               ; preds = %23
  %30 = call i32 @errcode(i32 noundef 261)
  %31 = load ptr, ptr %6, align 8
  %32 = getelementptr inbounds nuw %struct.TSQueryParserStateData, ptr %31, i32 0, i32 1
  %33 = load ptr, ptr %32, align 8
  %34 = call i32 (ptr, ...) @errmsg(ptr noundef @.str, ptr noundef %33)
  %35 = load ptr, ptr %12, align 8
  call void @errsave_finish(ptr noundef %35, ptr noundef @.str.1, i32 noundef 588, ptr noundef @__func__.pushValue)
  br label %36

36:                                               ; preds = %29, %23
  call void @llvm.lifetime.end.p0(i64 8, ptr %12) #11
  br label %37

37:                                               ; preds = %36
  br label %38

38:                                               ; preds = %37
  store i32 1, ptr %13, align 4
  br label %165

39:                                               ; No predecessors!
  br label %40

40:                                               ; preds = %39
  br label %41

41:                                               ; preds = %40, %5
  store i32 -1, ptr %11, align 4
  br label %42

42:                                               ; preds = %41
  call void @llvm.lifetime.start.p0(i64 8, ptr %14) #11
  %43 = load ptr, ptr %7, align 8
  store ptr %43, ptr %14, align 8
  call void @llvm.lifetime.start.p0(i64 4, ptr %15) #11
  %44 = load i32, ptr %8, align 4
  store i32 %44, ptr %15, align 4
  br label %45

45:                                               ; preds = %49, %42
  %46 = load i32, ptr %15, align 4
  %47 = add i32 %46, -1
  store i32 %47, ptr %15, align 4
  %48 = icmp ugt i32 %46, 0
  br i1 %48, label %49, label %65

49:                                               ; preds = %45
  call void @llvm.lifetime.start.p0(i64 4, ptr %16) #11
  %50 = load i32, ptr %11, align 4
  %51 = lshr i32 %50, 24
  %52 = load ptr, ptr %14, align 8
  %53 = getelementptr inbounds nuw i8, ptr %52, i32 1
  store ptr %53, ptr %14, align 8
  %54 = load i8, ptr %52, align 1
  %55 = zext i8 %54 to i32
  %56 = xor i32 %51, %55
  %57 = and i32 %56, 255
  store i32 %57, ptr %16, align 4
  %58 = load i32, ptr %16, align 4
  %59 = sext i32 %58 to i64
  %60 = getelementptr inbounds [256 x i32], ptr @pg_crc32_table, i64 0, i64 %59
  %61 = load i32, ptr %60, align 4
  %62 = load i32, ptr %11, align 4
  %63 = shl i32 %62, 8
  %64 = xor i32 %61, %63
  store i32 %64, ptr %11, align 4
  call void @llvm.lifetime.end.p0(i64 4, ptr %16) #11
  br label %45, !llvm.loop !4

65:                                               ; preds = %45
  call void @llvm.lifetime.end.p0(i64 4, ptr %15) #11
  call void @llvm.lifetime.end.p0(i64 8, ptr %14) #11
  br label %66

66:                                               ; preds = %65
  br label %67

67:                                               ; preds = %66
  %68 = load i32, ptr %11, align 4
  %69 = xor i32 %68, -1
  store i32 %69, ptr %11, align 4
  %70 = load ptr, ptr %6, align 8
  %71 = load i32, ptr %11, align 4
  %72 = load ptr, ptr %6, align 8
  %73 = getelementptr inbounds nuw %struct.TSQueryParserStateData, ptr %72, i32 0, i32 7
  %74 = load ptr, ptr %73, align 8
  %75 = load ptr, ptr %6, align 8
  %76 = getelementptr inbounds nuw %struct.TSQueryParserStateData, ptr %75, i32 0, i32 6
  %77 = load ptr, ptr %76, align 8
  %78 = ptrtoint ptr %74 to i64
  %79 = ptrtoint ptr %77 to i64
  %80 = sub i64 %78, %79
  %81 = trunc i64 %80 to i32
  %82 = load i32, ptr %8, align 4
  %83 = load i16, ptr %9, align 2
  %84 = sext i16 %83 to i32
  %85 = load i8, ptr %10, align 1, !range !6, !noundef !7
  %86 = trunc i8 %85 to i1
  call void @pushValue_internal(ptr noundef %70, i32 noundef %71, i32 noundef %81, i32 noundef %82, i32 noundef %84, i1 noundef zeroext %86)
  br label %87

87:                                               ; preds = %106, %67
  %88 = load ptr, ptr %6, align 8
  %89 = getelementptr inbounds nuw %struct.TSQueryParserStateData, ptr %88, i32 0, i32 7
  %90 = load ptr, ptr %89, align 8
  %91 = load ptr, ptr %6, align 8
  %92 = getelementptr inbounds nuw %struct.TSQueryParserStateData, ptr %91, i32 0, i32 6
  %93 = load ptr, ptr %92, align 8
  %94 = ptrtoint ptr %90 to i64
  %95 = ptrtoint ptr %93 to i64
  %96 = sub i64 %94, %95
  %97 = load i32, ptr %8, align 4
  %98 = sext i32 %97 to i64
  %99 = add i64 %96, %98
  %100 = add i64 %99, 1
  %101 = load ptr, ptr %6, align 8
  %102 = getelementptr inbounds nuw %struct.TSQueryParserStateData, ptr %101, i32 0, i32 8
  %103 = load i32, ptr %102, align 8
  %104 = sext i32 %103 to i64
  %105 = icmp sge i64 %100, %104
  br i1 %105, label %106, label %139

106:                                              ; preds = %87
  call void @llvm.lifetime.start.p0(i64 4, ptr %17) #11
  %107 = load ptr, ptr %6, align 8
  %108 = getelementptr inbounds nuw %struct.TSQueryParserStateData, ptr %107, i32 0, i32 7
  %109 = load ptr, ptr %108, align 8
  %110 = load ptr, ptr %6, align 8
  %111 = getelementptr inbounds nuw %struct.TSQueryParserStateData, ptr %110, i32 0, i32 6
  %112 = load ptr, ptr %111, align 8
  %113 = ptrtoint ptr %109 to i64
  %114 = ptrtoint ptr %112 to i64
  %115 = sub i64 %113, %114
  %116 = trunc i64 %115 to i32
  store i32 %116, ptr %17, align 4
  %117 = load ptr, ptr %6, align 8
  %118 = getelementptr inbounds nuw %struct.TSQueryParserStateData, ptr %117, i32 0, i32 8
  %119 = load i32, ptr %118, align 8
  %120 = mul i32 %119, 2
  store i32 %120, ptr %118, align 8
  %121 = load ptr, ptr %6, align 8
  %122 = getelementptr inbounds nuw %struct.TSQueryParserStateData, ptr %121, i32 0, i32 6
  %123 = load ptr, ptr %122, align 8
  %124 = load ptr, ptr %6, align 8
  %125 = getelementptr inbounds nuw %struct.TSQueryParserStateData, ptr %124, i32 0, i32 8
  %126 = load i32, ptr %125, align 8
  %127 = sext i32 %126 to i64
  %128 = call ptr @repalloc(ptr noundef %123, i64 noundef %127)
  %129 = load ptr, ptr %6, align 8
  %130 = getelementptr inbounds nuw %struct.TSQueryParserStateData, ptr %129, i32 0, i32 6
  store ptr %128, ptr %130, align 8
  %131 = load ptr, ptr %6, align 8
  %132 = getelementptr inbounds nuw %struct.TSQueryParserStateData, ptr %131, i32 0, i32 6
  %133 = load ptr, ptr %132, align 8
  %134 = load i32, ptr %17, align 4
  %135 = sext i32 %134 to i64
  %136 = getelementptr inbounds i8, ptr %133, i64 %135
  %137 = load ptr, ptr %6, align 8
  %138 = getelementptr inbounds nuw %struct.TSQueryParserStateData, ptr %137, i32 0, i32 7
  store ptr %136, ptr %138, align 8
  call void @llvm.lifetime.end.p0(i64 4, ptr %17) #11
  br label %87, !llvm.loop !8

139:                                              ; preds = %87
  %140 = load ptr, ptr %6, align 8
  %141 = getelementptr inbounds nuw %struct.TSQueryParserStateData, ptr %140, i32 0, i32 7
  %142 = load ptr, ptr %141, align 8
  %143 = load ptr, ptr %7, align 8
  %144 = load i32, ptr %8, align 4
  %145 = sext i32 %144 to i64
  call void @llvm.memcpy.p0.p0.i64(ptr align 1 %142, ptr align 1 %143, i64 %145, i1 false)
  %146 = load i32, ptr %8, align 4
  %147 = load ptr, ptr %6, align 8
  %148 = getelementptr inbounds nuw %struct.TSQueryParserStateData, ptr %147, i32 0, i32 7
  %149 = load ptr, ptr %148, align 8
  %150 = sext i32 %146 to i64
  %151 = getelementptr inbounds i8, ptr %149, i64 %150
  store ptr %151, ptr %148, align 8
  %152 = load ptr, ptr %6, align 8
  %153 = getelementptr inbounds nuw %struct.TSQueryParserStateData, ptr %152, i32 0, i32 7
  %154 = load ptr, ptr %153, align 8
  store i8 0, ptr %154, align 1
  %155 = load ptr, ptr %6, align 8
  %156 = getelementptr inbounds nuw %struct.TSQueryParserStateData, ptr %155, i32 0, i32 7
  %157 = load ptr, ptr %156, align 8
  %158 = getelementptr inbounds nuw i8, ptr %157, i32 1
  store ptr %158, ptr %156, align 8
  %159 = load i32, ptr %8, align 4
  %160 = add i32 %159, 1
  %161 = load ptr, ptr %6, align 8
  %162 = getelementptr inbounds nuw %struct.TSQueryParserStateData, ptr %161, i32 0, i32 9
  %163 = load i32, ptr %162, align 4
  %164 = add i32 %163, %160
  store i32 %164, ptr %162, align 4
  store i32 0, ptr %13, align 4
  br label %165

165:                                              ; preds = %139, %38
  call void @llvm.lifetime.end.p0(i64 4, ptr %11) #11
  %166 = load i32, ptr %13, align 4
  switch i32 %166, label %168 [
    i32 0, label %167
    i32 1, label %167
  ]

167:                                              ; preds = %165, %165
  ret void

168:                                              ; preds = %165
  unreachable
}