; Function Attrs: nounwind uwtable
define dso_local void @pushValue(ptr noundef captures(none) %0, ptr noundef readonly captures(none) %1, i32 noundef %2, i16 noundef signext %3, i1 noundef zeroext %4) local_unnamed_addr #0 {
  %6 = icmp sgt i32 %2, 2046
  br i1 %6, label %7, label %.preheader

.preheader:                                       ; preds = %5
  %.not46 = icmp eq i32 %2, 0
  br i1 %.not46, label %._crit_edge, label %.lr.ph

7:                                                ; preds = %5
  %8 = getelementptr inbounds nuw i8, ptr %0, i64 72
  %9 = load ptr, ptr %8, align 8
  %10 = tail call zeroext i1 @errsave_start(ptr noundef %9, ptr noundef null) #12
  br i1 %10, label %11, label %91

11:                                               ; preds = %7
  %12 = tail call i32 @errcode(i32 noundef 261) #12
  %13 = getelementptr inbounds nuw i8, ptr %0, i64 8
  %14 = load ptr, ptr %13, align 8
  %15 = tail call i32 (ptr, ...) @errmsg(ptr noundef nonnull @.str, ptr noundef %14) #12
  tail call void @errsave_finish(ptr noundef %9, ptr noundef nonnull @.str.1, i32 noundef 588, ptr noundef nonnull @__func__.pushValue) #12
  br label %91

.lr.ph:                                           ; preds = %.preheader, %.lr.ph
  %.049 = phi i32 [ %26, %.lr.ph ], [ -1, %.preheader ]
  %.04148 = phi i32 [ %16, %.lr.ph ], [ %2, %.preheader ]
  %.04247 = phi ptr [ %18, %.lr.ph ], [ %1, %.preheader ]
  %16 = add i32 %.04148, -1
  %17 = lshr i32 %.049, 24
  %18 = getelementptr inbounds nuw i8, ptr %.04247, i64 1
  %19 = load i8, ptr %.04247, align 1
  %20 = zext i8 %19 to i32
  %21 = xor i32 %17, %20
  %22 = zext nneg i32 %21 to i64
  %23 = getelementptr inbounds nuw [256 x i32], ptr @pg_crc32_table, i64 0, i64 %22
  %24 = load i32, ptr %23, align 4
  %25 = shl i32 %.049, 8
  %26 = xor i32 %24, %25
  %.not = icmp eq i32 %16, 0
  br i1 %.not, label %._crit_edge.loopexit, label %.lr.ph, !llvm.loop !4

._crit_edge.loopexit:                             ; preds = %.lr.ph
  %27 = xor i32 %26, -1
  br label %._crit_edge

._crit_edge:                                      ; preds = %._crit_edge.loopexit, %.preheader
  %.0.lcssa = phi i32 [ 0, %.preheader ], [ %27, %._crit_edge.loopexit ]
  %28 = getelementptr inbounds nuw i8, ptr %0, i64 48
  %29 = load ptr, ptr %28, align 8
  %30 = getelementptr inbounds nuw i8, ptr %0, i64 40
  %31 = load ptr, ptr %30, align 8
  %32 = ptrtoint ptr %29 to i64
  %33 = ptrtoint ptr %31 to i64
  %34 = sub i64 %32, %33
  %35 = trunc i64 %34 to i32
  %36 = icmp sgt i32 %35, 1048574
  br i1 %36, label %37, label %46

37:                                               ; preds = %._crit_edge
  %38 = getelementptr inbounds nuw i8, ptr %0, i64 72
  %39 = load ptr, ptr %38, align 8
  %40 = tail call zeroext i1 @errsave_start(ptr noundef %39, ptr noundef null) #12
  br i1 %40, label %41, label %pushValue_internal.exit

41:                                               ; preds = %37
  %42 = tail call i32 @errcode(i32 noundef 261) #12
  %43 = getelementptr inbounds nuw i8, ptr %0, i64 8
  %44 = load ptr, ptr %43, align 8
  %45 = tail call i32 (ptr, ...) @errmsg(ptr noundef nonnull @.str.13, ptr noundef %44) #12
  tail call void @errsave_finish(ptr noundef %39, ptr noundef nonnull @.str.1, i32 noundef 555, ptr noundef nonnull @__func__.pushValue_internal) #12
  br label %pushValue_internal.exit

46:                                               ; preds = %._crit_edge
  %47 = zext i1 %4 to i8
  %48 = tail call ptr @palloc0(i64 noundef 12) #12
  store i8 1, ptr %48, align 4
  %49 = trunc i16 %3 to i8
  %50 = getelementptr inbounds nuw i8, ptr %48, i64 1
  store i8 %49, ptr %50, align 1
  %51 = getelementptr inbounds nuw i8, ptr %48, i64 2
  store i8 %47, ptr %51, align 2
  %52 = getelementptr inbounds nuw i8, ptr %48, i64 4
  store i32 %.0.lcssa, ptr %52, align 4
  %53 = getelementptr inbounds nuw i8, ptr %48, i64 8
  %54 = and i32 %2, 4095
  %55 = shl i32 %35, 12
  %56 = or disjoint i32 %55, %54
  store i32 %56, ptr %53, align 4
  %57 = getelementptr inbounds nuw i8, ptr %0, i64 32
  %58 = load ptr, ptr %57, align 8
  %59 = tail call ptr @lcons(ptr noundef nonnull %48, ptr noundef %58) #12
  store ptr %59, ptr %57, align 8
  br label %pushValue_internal.exit

pushValue_internal.exit:                          ; preds = %37, %41, %46
  %60 = sext i32 %2 to i64
  %61 = add nsw i64 %60, 1
  %62 = getelementptr inbounds nuw i8, ptr %0, i64 56
  %63 = load ptr, ptr %28, align 8
  %64 = load ptr, ptr %30, align 8
  %65 = ptrtoint ptr %63 to i64
  %66 = ptrtoint ptr %64 to i64
  %67 = sub i64 %65, %66
  %68 = add i64 %61, %67
  %69 = load i32, ptr %62, align 8
  %70 = sext i32 %69 to i64
  %.not4450 = icmp slt i64 %68, %70
  br i1 %.not4450, label %._crit_edge52, label %.lr.ph51.preheader

.lr.ph51.preheader:                               ; preds = %pushValue_internal.exit
  %71 = shl i64 %67, 32
  %72 = ashr exact i64 %71, 32
  %73 = add nsw i64 %61, %72
  br label %.lr.ph51

.lr.ph51:                                         ; preds = %.lr.ph51.preheader, %.lr.ph51
  %74 = phi i32 [ %80, %.lr.ph51 ], [ %69, %.lr.ph51.preheader ]
  %75 = phi ptr [ %78, %.lr.ph51 ], [ %64, %.lr.ph51.preheader ]
  %76 = shl i32 %74, 1
  store i32 %76, ptr %62, align 8
  %77 = sext i32 %76 to i64
  %78 = tail call ptr @repalloc(ptr noundef %75, i64 noundef %77) #12
  store ptr %78, ptr %30, align 8
  %79 = getelementptr inbounds i8, ptr %78, i64 %72
  store ptr %79, ptr %28, align 8
  %80 = load i32, ptr %62, align 8
  %81 = sext i32 %80 to i64
  %.not44 = icmp slt i64 %73, %81
  br i1 %.not44, label %._crit_edge52.loopexit, label %.lr.ph51, !llvm.loop !6

._crit_edge52.loopexit:                           ; preds = %.lr.ph51
  %82 = getelementptr inbounds i8, ptr %78, i64 %72
  br label %._crit_edge52

._crit_edge52:                                    ; preds = %._crit_edge52.loopexit, %pushValue_internal.exit
  %.lcssa45 = phi ptr [ %63, %pushValue_internal.exit ], [ %82, %._crit_edge52.loopexit ]
  tail call void @llvm.memcpy.p0.p0.i64(ptr align 1 %.lcssa45, ptr align 1 %1, i64 %60, i1 false)
  %83 = load ptr, ptr %28, align 8
  %84 = getelementptr inbounds i8, ptr %83, i64 %60
  store ptr %84, ptr %28, align 8
  store i8 0, ptr %84, align 1
  %85 = load ptr, ptr %28, align 8
  %86 = getelementptr inbounds nuw i8, ptr %85, i64 1
  store ptr %86, ptr %28, align 8
  %87 = add nsw i32 %2, 1
  %88 = getelementptr inbounds nuw i8, ptr %0, i64 60
  %89 = load i32, ptr %88, align 4
  %90 = add i32 %87, %89
  store i32 %90, ptr %88, align 4
  br label %91

91:                                               ; preds = %7, %11, %._crit_edge52
  ret void
}